; Function Attrs: mustprogress uwtable
define noundef nonnull align 8 dereferenceable(400) ptr @_ZN6icu_7515AlphabeticIndex12clearRecordsER10UErrorCode(ptr noundef nonnull returned align 8 dereferenceable(400) %this, ptr nocapture noundef nonnull readonly align 4 dereferenceable(4) %status) unnamed_addr #3 align 2 {
entry:
  %0 = load i32, ptr %status, align 4
  %cmp.i = icmp sgt i32 %0, 0
  br i1 %cmp.i, label %if.end, label %land.lhs.true

land.lhs.true:                                    ; preds = %entry
  %inputList_ = getelementptr inbounds i8, ptr %this, i64 8
  %1 = load ptr, ptr %inputList_, align 8
  %cmp.not = icmp eq ptr %1, null
  br i1 %cmp.not, label %if.end, label %land.lhs.true2

land.lhs.true2:                                   ; preds = %land.lhs.true
  %count.i = getelementptr inbounds i8, ptr %1, i64 8
  %2 = load i32, ptr %count.i, align 8
  %cmp.i1.not = icmp eq i32 %2, 0
  br i1 %cmp.i1.not, label %if.end, label %if.then

if.then:                                          ; preds = %land.lhs.true2
  tail call void @_ZN6icu_757UVector17removeAllElementsEv(ptr noundef nonnull align 8 dereferenceable(40) %1)
  %buckets_.i = getelementptr inbounds i8, ptr %this, i64 72
  %3 = load ptr, ptr %buckets_.i, align 8
  %cmp.not.i = icmp eq ptr %3, null
  br i1 %cmp.not.i, label %if.end, label %delete.notnull.i

delete.notnull.i:                                 ; preds = %if.then
  %vtable.i = load ptr, ptr %3, align 8
  %vfn.i = getelementptr inbounds i8, ptr %vtable.i, i64 8
  %4 = load ptr, ptr %vfn.i, align 8
  tail call void %4(ptr noundef nonnull align 8 dereferenceable(24) %3) #16
  store ptr null, ptr %buckets_.i, align 8
  %labelsIterIndex_.i.i = getelementptr inbounds i8, ptr %this, i64 16
  store i32 -1, ptr %labelsIterIndex_.i.i, align 8
  %currentBucket_.i.i = getelementptr inbounds i8, ptr %this, i64 24
  store ptr null, ptr %currentBucket_.i.i, align 8
  br label %if.end

if.end:                                           ; preds = %delete.notnull.i, %if.then, %land.lhs.true2, %land.lhs.true, %entry
  ret ptr %this
}